---
triple:          'arm64-apple-darwin'
binary-path:     '/Users/paramrajguru/Computer Science/C++/Personal Stockfish/main'
relocations:
  - { offsetInCU: 0x5D64, offset: 0x5D64, size: 0x8, addend: 0x0, symName: __ZNSt3__124__put_character_sequenceB8ue170006IcNS_11char_traitsIcEEEERNS_13basic_ostreamIT_T0_EES7_PKS4_m, symObjAddr: 0x4204, symBinAddr: 0x100006C60, symSize: 0x1EC }
  - { offsetInCU: 0x78D6, offset: 0x78D6, size: 0x8, addend: 0x0, symName: __ZNSt3__112__to_addressB8ue170006INS_6vectorI6SquareNS_9allocatorIS2_EEEEEEPT_S7_, symObjAddr: 0xEEC, symBinAddr: 0x100003948, symSize: 0x14 }
  - { offsetInCU: 0x790B, offset: 0x790B, size: 0x8, addend: 0x0, symName: __ZNSt3__122__make_exception_guardB8ue170006INS_6vectorI6SquareNS_9allocatorIS2_EEE16__destroy_vectorEEENS_28__exception_guard_exceptionsIT_EES8_, symObjAddr: 0x1274, symBinAddr: 0x100003CD0, symSize: 0x40 }
  - { offsetInCU: 0x7940, offset: 0x7940, size: 0x8, addend: 0x0, symName: __ZNSt3__119__allocate_at_leastB8ue170006INS_9allocatorI6SquareEEEENS_19__allocation_resultINS_16allocator_traitsIT_E7pointerEEERS6_m, symObjAddr: 0x155C, symBinAddr: 0x100003FB8, symSize: 0x40 }
  - { offsetInCU: 0x7983, offset: 0x7983, size: 0x8, addend: 0x0, symName: __ZNSt3__13minB8ue170006ImEERKT_S3_S3_, symObjAddr: 0x1698, symBinAddr: 0x1000040F4, symSize: 0x2C }
  - { offsetInCU: 0x7BC7, offset: 0x7BC7, size: 0x8, addend: 0x0, symName: __ZNSt3__13minB8ue170006ImNS_6__lessIvvEEEERKT_S5_S5_T0_, symObjAddr: 0x16FC, symBinAddr: 0x100004158, symSize: 0x54 }
  - { offsetInCU: 0x7C66, offset: 0x7C66, size: 0x8, addend: 0x0, symName: __ZNSt3__120__throw_length_errorB8ue170006EPKc, symObjAddr: 0x17A0, symBinAddr: 0x1000041FC, symSize: 0x64 }
  - { offsetInCU: 0x7C90, offset: 0x7C90, size: 0x8, addend: 0x0, symName: __ZNSt3__117__libcpp_allocateB8ue170006Emm, symObjAddr: 0x1910, symBinAddr: 0x10000436C, symSize: 0x28 }
  - { offsetInCU: 0x7CCD, offset: 0x7CCD, size: 0x8, addend: 0x0, symName: __ZNSt3__121__libcpp_operator_newB8ue170006IJmEEEPvDpT_, symObjAddr: 0x1938, symBinAddr: 0x100004394, symSize: 0x24 }
  - { offsetInCU: 0x7D06, offset: 0x7D06, size: 0x8, addend: 0x0, symName: __ZNSt3__112__to_addressB8ue170006I6SquareEEPT_S3_, symObjAddr: 0x1A54, symBinAddr: 0x1000044B0, symSize: 0x14 }
  - { offsetInCU: 0x7D3B, offset: 0x7D3B, size: 0x8, addend: 0x0, symName: __ZNSt3__130__uninitialized_allocator_copyB8ue170006INS_9allocatorI6SquareEEPS2_S4_S4_EET2_RT_T0_T1_S5_, symObjAddr: 0x1B04, symBinAddr: 0x100004560, symSize: 0x80 }
  - { offsetInCU: 0x7DD8, offset: 0x7DD8, size: 0x8, addend: 0x0, symName: __ZNSt3__114__unwrap_rangeB8ue170006IP6SquareS2_EENS_4pairIT0_S4_EET_S6_, symObjAddr: 0x1BF4, symBinAddr: 0x100004650, symSize: 0x60 }
  - { offsetInCU: 0x7E24, offset: 0x7E24, size: 0x8, addend: 0x0, symName: __ZNSt3__135__uninitialized_allocator_copy_implB8ue170006INS_9allocatorI6SquareEES2_S2_S2_LPv0EEEPT2_RT_PT0_SA_S6_, symObjAddr: 0x1C54, symBinAddr: 0x1000046B0, symSize: 0x38 }
  - { offsetInCU: 0x7EA5, offset: 0x7EA5, size: 0x8, addend: 0x0, symName: __ZNSt3__113__unwrap_iterB8ue170006IP6SquareNS_18__unwrap_iter_implIS2_Lb1EEELi0EEEDTclsrT0_8__unwrapclsr3stdE7declvalIT_EEEES6_, symObjAddr: 0x1C8C, symBinAddr: 0x1000046E8, symSize: 0x24 }
  - { offsetInCU: 0x7EE9, offset: 0x7EE9, size: 0x8, addend: 0x0, symName: __ZNSt3__113__rewrap_iterB8ue170006IP6SquareS2_NS_18__unwrap_iter_implIS2_Lb1EEEEET_S5_T0_, symObjAddr: 0x1CB0, symBinAddr: 0x10000470C, symSize: 0x3C }
  - { offsetInCU: 0x7F3E, offset: 0x7F3E, size: 0x8, addend: 0x0, symName: __ZNSt3__19make_pairB8ue170006IP6SquareS2_EENS_4pairINS_18__unwrap_ref_decayIT_E4typeENS4_IT0_E4typeEEEOS5_OS8_, symObjAddr: 0x1CEC, symBinAddr: 0x100004748, symSize: 0x38 }
  - { offsetInCU: 0x8090, offset: 0x8090, size: 0x8, addend: 0x0, symName: __ZNSt3__14copyB8ue170006IP6SquareS2_EET0_T_S4_S3_, symObjAddr: 0x1D94, symBinAddr: 0x1000047F0, symSize: 0x40 }
  - { offsetInCU: 0x80EA, offset: 0x80EA, size: 0x8, addend: 0x0, symName: __ZNSt3__16__copyB8ue170006INS_17_ClassicAlgPolicyEP6SquareS3_S3_EENS_4pairIT0_T2_EES5_T1_S6_, symObjAddr: 0x1DD4, symBinAddr: 0x100004830, symSize: 0x44 }
  - { offsetInCU: 0x8156, offset: 0x8156, size: 0x8, addend: 0x0, symName: __ZNSt3__123__dispatch_copy_or_moveB8ue170006INS_17_ClassicAlgPolicyENS_11__copy_loopIS1_EENS_14__copy_trivialEP6SquareS6_S6_EENS_4pairIT2_T4_EES8_T3_S9_, symObjAddr: 0x1E18, symBinAddr: 0x100004874, symSize: 0x44 }
  - { offsetInCU: 0x81D4, offset: 0x81D4, size: 0x8, addend: 0x0, symName: __ZNSt3__121__unwrap_and_dispatchB8ue170006INS_10__overloadINS_11__copy_loopINS_17_ClassicAlgPolicyEEENS_14__copy_trivialEEEP6SquareS8_S8_Li0EEENS_4pairIT0_T2_EESA_T1_SB_, symObjAddr: 0x1E5C, symBinAddr: 0x1000048B8, symSize: 0xB4 }
  - { offsetInCU: 0x82A8, offset: 0x82A8, size: 0x8, addend: 0x0, symName: __ZNSt3__114__rewrap_rangeB8ue170006IP6SquareS2_EET_S3_T0_, symObjAddr: 0x1F58, symBinAddr: 0x1000049B4, symSize: 0x2C }
  - { offsetInCU: 0x82F4, offset: 0x82F4, size: 0x8, addend: 0x0, symName: __ZNSt3__119__copy_trivial_implB8ue170006I6SquareS1_EENS_4pairIPT_PT0_EES4_S4_S6_, symObjAddr: 0x1F84, symBinAddr: 0x1000049E0, symSize: 0x80 }
  - { offsetInCU: 0x835C, offset: 0x835C, size: 0x8, addend: 0x0, symName: __ZNSt3__119__constexpr_memmoveB8ue170006I6SquareS1_Li0EEEPT_S3_PT0_NS_15__element_countE, symObjAddr: 0x2004, symBinAddr: 0x100004A60, symSize: 0x64 }
  - { offsetInCU: 0x83CA, offset: 0x83CA, size: 0x8, addend: 0x0, symName: __ZNSt3__19make_pairB8ue170006IRP6SquareS2_EENS_4pairINS_18__unwrap_ref_decayIT_E4typeENS5_IT0_E4typeEEEOS6_OS9_, symObjAddr: 0x2068, symBinAddr: 0x100004AC4, symSize: 0x38 }
  - { offsetInCU: 0x846C, offset: 0x846C, size: 0x8, addend: 0x0, symName: __ZNSt3__119__libcpp_deallocateB8ue170006EPvmm, symObjAddr: 0x24A4, symBinAddr: 0x100004F00, symSize: 0x30 }
  - { offsetInCU: 0x84B4, offset: 0x84B4, size: 0x8, addend: 0x0, symName: __ZNSt3__127__do_deallocate_handle_sizeB8ue170006IJEEEvPvmDpT_, symObjAddr: 0x24D4, symBinAddr: 0x100004F30, symSize: 0x28 }
  - { offsetInCU: 0x84F2, offset: 0x84F2, size: 0x8, addend: 0x0, symName: __ZNSt3__124__libcpp_operator_deleteB8ue170006IJPvEEEvDpT_, symObjAddr: 0x24FC, symBinAddr: 0x100004F58, symSize: 0x24 }
  - { offsetInCU: 0x8527, offset: 0x8527, size: 0x8, addend: 0x0, symName: __ZNSt3__13maxB8ue170006ImEERKT_S3_S3_, symObjAddr: 0x2634, symBinAddr: 0x100005090, symSize: 0x2C }
  - { offsetInCU: 0x856A, offset: 0x856A, size: 0x8, addend: 0x0, symName: __ZNSt3__13maxB8ue170006ImNS_6__lessIvvEEEERKT_S5_S5_T0_, symObjAddr: 0x275C, symBinAddr: 0x1000051B8, symSize: 0x54 }
  - { offsetInCU: 0x85C4, offset: 0x85C4, size: 0x8, addend: 0x0, symName: __ZNSt3__119__allocate_at_leastB8ue170006INS_9allocatorINS_6vectorI6SquareNS1_IS3_EEEEEEEENS_19__allocation_resultINS_16allocator_traitsIT_E7pointerEEERS9_m, symObjAddr: 0x28CC, symBinAddr: 0x100005328, symSize: 0x40 }
  - { offsetInCU: 0x8607, offset: 0x8607, size: 0x8, addend: 0x0, symName: __ZNSt3__142__uninitialized_allocator_move_if_noexceptB8ue170006INS_9allocatorINS_6vectorI6SquareNS1_IS3_EEEEEENS_16reverse_iteratorIPS5_EES9_S9_EET2_RT_T0_T1_SA_, symObjAddr: 0x2C2C, symBinAddr: 0x100005688, symSize: 0x12C }
  - { offsetInCU: 0x86A7, offset: 0x86A7, size: 0x8, addend: 0x0, symName: __ZNSt3__14swapB8ue170006IPNS_6vectorI6SquareNS_9allocatorIS2_EEEEEENS_9enable_ifIXaasr21is_move_constructibleIT_EE5valuesr18is_move_assignableIS8_EE5valueEvE4typeERS8_SB_, symObjAddr: 0x2DA4, symBinAddr: 0x100005800, symSize: 0x3C }
  - { offsetInCU: 0x86F8, offset: 0x86F8, size: 0x8, addend: 0x0, symName: __ZNSt3__122__make_exception_guardB8ue170006INS_29_AllocatorDestroyRangeReverseINS_9allocatorINS_6vectorI6SquareNS2_IS4_EEEEEENS_16reverse_iteratorIPS6_EEEEEENS_28__exception_guard_exceptionsIT_EESD_, symObjAddr: 0x2EF0, symBinAddr: 0x10000594C, symSize: 0x4C }
  - { offsetInCU: 0x872E, offset: 0x872E, size: 0x8, addend: 0x0, symName: __ZNSt3__1neB8ue170006IPNS_6vectorI6SquareNS_9allocatorIS2_EEEES6_EEbRKNS_16reverse_iteratorIT_EERKNS7_IT0_EE, symObjAddr: 0x2F80, symBinAddr: 0x1000059DC, symSize: 0x48 }
  - { offsetInCU: 0x877A, offset: 0x877A, size: 0x8, addend: 0x0, symName: __ZNSt3__112__to_addressB8ue170006INS_16reverse_iteratorIPNS_6vectorI6SquareNS_9allocatorIS3_EEEEEEvEEu7__decayIDTclsr19__to_address_helperIT_EE6__callclsr3stdE7declvalIRKS9_EEEEESB_, symObjAddr: 0x2FFC, symBinAddr: 0x100005A58, symSize: 0x24 }
  - { offsetInCU: 0x87D9, offset: 0x87D9, size: 0x8, addend: 0x0, symName: __ZNSt3__119__allocator_destroyB8ue170006INS_9allocatorINS_6vectorI6SquareNS1_IS3_EEEEEENS_16reverse_iteratorINS7_IPS5_EEEESA_EEvRT_T0_T1_, symObjAddr: 0x33D4, symBinAddr: 0x100005E30, symSize: 0x70 }
  - { offsetInCU: 0x883E, offset: 0x883E, size: 0x8, addend: 0x0, symName: __ZNSt3__1neB8ue170006INS_16reverse_iteratorIPNS_6vectorI6SquareNS_9allocatorIS3_EEEEEES8_EEbRKNS1_IT_EERKNS1_IT0_EE, symObjAddr: 0x3480, symBinAddr: 0x100005EDC, symSize: 0x60 }
  - { offsetInCU: 0x888A, offset: 0x888A, size: 0x8, addend: 0x0, symName: __ZNSt3__112__to_addressB8ue170006INS_16reverse_iteratorINS1_IPNS_6vectorI6SquareNS_9allocatorIS3_EEEEEEEEvEEu7__decayIDTclsr19__to_address_helperIT_EE6__callclsr3stdE7declvalIRKSA_EEEEESC_, symObjAddr: 0x350C, symBinAddr: 0x100005F68, symSize: 0x24 }
  - { offsetInCU: 0x88E9, offset: 0x88E9, size: 0x8, addend: 0x0, symName: __ZNSt3__1lsB8ue170006INS_11char_traitsIcEEEERNS_13basic_ostreamIcT_EES6_PKc, symObjAddr: 0x40E0, symBinAddr: 0x100006B3C, symSize: 0x48 }
  - { offsetInCU: 0x892F, offset: 0x892F, size: 0x8, addend: 0x0, symName: __ZNSt3__1lsB8ue170006INS_11char_traitsIcEEEERNS_13basic_ostreamIcT_EES6_c, symObjAddr: 0x4128, symBinAddr: 0x100006B84, symSize: 0x34 }
  - { offsetInCU: 0x8975, offset: 0x8975, size: 0x8, addend: 0x0, symName: __ZNSt3__14endlB8ue170006IcNS_11char_traitsIcEEEERNS_13basic_ostreamIT_T0_EES7_, symObjAddr: 0x4188, symBinAddr: 0x100006BE4, symSize: 0x58 }
  - { offsetInCU: 0x89B5, offset: 0x89B5, size: 0x8, addend: 0x0, symName: __ZNSt3__116__pad_and_outputB8ue170006IcNS_11char_traitsIcEEEENS_19ostreambuf_iteratorIT_T0_EES6_PKS4_S8_S8_RNS_8ios_baseES4_, symObjAddr: 0x4440, symBinAddr: 0x100006E9C, symSize: 0x240 }
  - { offsetInCU: 0x8A84, offset: 0x8A84, size: 0x8, addend: 0x0, symName: __ZNSt3__112__to_addressB8ue170006IKcEEPT_S3_, symObjAddr: 0x49A8, symBinAddr: 0x100007404, symSize: 0x14 }
  - { offsetInCU: 0x8AEC, offset: 0x8AEC, size: 0x8, addend: 0x0, symName: __ZNSt3__19use_facetB8ue170006INS_5ctypeIcEEEERKT_RKNS_6localeE, symObjAddr: 0x4C28, symBinAddr: 0x100007684, symSize: 0x2C }
  - { offsetInCU: 0x8FB9, offset: 0x8FB9, size: 0x8, addend: 0x0, symName: __ZNSt3__118__constexpr_strlenB8ue170006EPKc, symObjAddr: 0x4CC0, symBinAddr: 0x10000771C, symSize: 0x24 }
  - { offsetInCU: 0x934A, offset: 0x934A, size: 0x8, addend: 0x0, symName: __ZSt28__throw_bad_array_new_lengthB8ue170006v, symObjAddr: 0x18DC, symBinAddr: 0x100004338, symSize: 0x34 }
  - { offsetInCU: 0x9938, offset: 0x9938, size: 0x8, addend: 0x0, symName: __ZNSt3__16vectorINS0_I6SquareNS_9allocatorIS1_EEEENS2_IS4_EEE26__swap_out_circular_bufferERNS_14__split_bufferIS4_RS5_EE, symObjAddr: 0xD08, symBinAddr: 0x100003764, symSize: 0x110 }
  - { offsetInCU: 0xA348, offset: 0xA348, size: 0x8, addend: 0x0, symName: __Z7toloweri, symObjAddr: 0x41E0, symBinAddr: 0x100006C3C, symSize: 0x24 }
  - { offsetInCU: 0xBD89, offset: 0xBD89, size: 0x8, addend: 0x0, symName: _main, symObjAddr: 0x0, symBinAddr: 0x100002A5C, symSize: 0x64 }
  - { offsetInCU: 0xBE31, offset: 0xBE31, size: 0x8, addend: 0x0, symName: __ZN10ChessBoardC1Ev, symObjAddr: 0x64, symBinAddr: 0x100002AC0, symSize: 0x2C }
  - { offsetInCU: 0xBE5A, offset: 0xBE5A, size: 0x8, addend: 0x0, symName: __ZN10ChessBoard10printBoardEv, symObjAddr: 0x90, symBinAddr: 0x100002AEC, symSize: 0x100 }
  - { offsetInCU: 0xBEE4, offset: 0xBEE4, size: 0x8, addend: 0x0, symName: __ZN10ChessBoardD1Ev, symObjAddr: 0x190, symBinAddr: 0x100002BEC, symSize: 0x2C }
  - { offsetInCU: 0xBF0F, offset: 0xBF0F, size: 0x8, addend: 0x0, symName: __ZN10ChessBoardC2Ev, symObjAddr: 0x1BC, symBinAddr: 0x100002C18, symSize: 0xA0 }
  - { offsetInCU: 0xBF38, offset: 0xBF38, size: 0x8, addend: 0x0, symName: __ZNSt3__16vectorINS0_I6SquareNS_9allocatorIS1_EEEENS2_IS4_EEEC1B8ue170006Ev, symObjAddr: 0x25C, symBinAddr: 0x100002CB8, symSize: 0x2C }
  - { offsetInCU: 0xBF60, offset: 0xBF60, size: 0x8, addend: 0x0, symName: __ZNSt3__16vectorINS0_I6SquareNS_9allocatorIS1_EEEENS2_IS4_EEE6resizeEmRKS4_, symObjAddr: 0x288, symBinAddr: 0x100002CE4, symSize: 0xA4 }
  - { offsetInCU: 0xBFB4, offset: 0xBFB4, size: 0x8, addend: 0x0, symName: __ZNSt3__16vectorI6SquareNS_9allocatorIS1_EEEC1Em, symObjAddr: 0x32C, symBinAddr: 0x100002D88, symSize: 0x34 }
  - { offsetInCU: 0xBFEE, offset: 0xBFEE, size: 0x8, addend: 0x0, symName: __ZNSt3__16vectorI6SquareNS_9allocatorIS1_EEED1B8ue170006Ev, symObjAddr: 0x360, symBinAddr: 0x100002DBC, symSize: 0x2C }
  - { offsetInCU: 0xC017, offset: 0xC017, size: 0x8, addend: 0x0, symName: __ZN10ChessBoard15initializeBoardEv, symObjAddr: 0x38C, symBinAddr: 0x100002DE8, symSize: 0x398 }
  - { offsetInCU: 0xC059, offset: 0xC059, size: 0x8, addend: 0x0, symName: __ZNSt3__16vectorINS0_I6SquareNS_9allocatorIS1_EEEENS2_IS4_EEED1B8ue170006Ev, symObjAddr: 0x724, symBinAddr: 0x100003180, symSize: 0x2C }
  - { offsetInCU: 0xC082, offset: 0xC082, size: 0x8, addend: 0x0, symName: __ZNSt3__16vectorINS0_I6SquareNS_9allocatorIS1_EEEENS2_IS4_EEEC2B8ue170006Ev, symObjAddr: 0x750, symBinAddr: 0x1000031AC, symSize: 0x4C }
  - { offsetInCU: 0xC0B5, offset: 0xC0B5, size: 0x8, addend: 0x0, symName: __ZNSt3__117__compressed_pairIPNS_6vectorI6SquareNS_9allocatorIS2_EEEENS3_IS5_EEEC1B8ue170006IDnNS_18__default_init_tagEEEOT_OT0_, symObjAddr: 0x79C, symBinAddr: 0x1000031F8, symSize: 0x3C }
  - { offsetInCU: 0xC10C, offset: 0xC10C, size: 0x8, addend: 0x0, symName: __ZNSt3__117__compressed_pairIPNS_6vectorI6SquareNS_9allocatorIS2_EEEENS3_IS5_EEEC2B8ue170006IDnNS_18__default_init_tagEEEOT_OT0_, symObjAddr: 0x7E4, symBinAddr: 0x100003240, symSize: 0x40 }
  - { offsetInCU: 0xC163, offset: 0xC163, size: 0x8, addend: 0x0, symName: __ZNSt3__122__compressed_pair_elemIPNS_6vectorI6SquareNS_9allocatorIS2_EEEELi0ELb0EEC2B8ue170006IDnvEEOT_, symObjAddr: 0x824, symBinAddr: 0x100003280, symSize: 0x1C }
  - { offsetInCU: 0xC1A4, offset: 0xC1A4, size: 0x8, addend: 0x0, symName: __ZNSt3__122__compressed_pair_elemINS_9allocatorINS_6vectorI6SquareNS1_IS3_EEEEEELi1ELb1EEC2B8ue170006ENS_18__default_init_tagE, symObjAddr: 0x840, symBinAddr: 0x10000329C, symSize: 0x2C }
  - { offsetInCU: 0xC1D8, offset: 0xC1D8, size: 0x8, addend: 0x0, symName: __ZNSt3__19allocatorINS_6vectorI6SquareNS0_IS2_EEEEEC2B8ue170006Ev, symObjAddr: 0x86C, symBinAddr: 0x1000032C8, symSize: 0x2C }
  - { offsetInCU: 0xC201, offset: 0xC201, size: 0x8, addend: 0x0, symName: __ZNSt3__116__non_trivial_ifILb1ENS_9allocatorINS_6vectorI6SquareNS1_IS3_EEEEEEEC2B8ue170006Ev, symObjAddr: 0x898, symBinAddr: 0x1000032F4, symSize: 0x14 }
  - { offsetInCU: 0xC22A, offset: 0xC22A, size: 0x8, addend: 0x0, symName: __ZNKSt3__16vectorINS0_I6SquareNS_9allocatorIS1_EEEENS2_IS4_EEE4sizeB8ue170006Ev, symObjAddr: 0x8AC, symBinAddr: 0x100003308, symSize: 0x28 }
  - { offsetInCU: 0xC24E, offset: 0xC24E, size: 0x8, addend: 0x0, symName: __ZNSt3__16vectorINS0_I6SquareNS_9allocatorIS1_EEEENS2_IS4_EEE8__appendEmRKS4_, symObjAddr: 0x8D4, symBinAddr: 0x100003330, symSize: 0x114 }
  - { offsetInCU: 0xC2B7, offset: 0xC2B7, size: 0x8, addend: 0x0, symName: __ZNSt3__16vectorINS0_I6SquareNS_9allocatorIS1_EEEENS2_IS4_EEE17__destruct_at_endB8ue170006EPS4_, symObjAddr: 0x9E8, symBinAddr: 0x100003444, symSize: 0x4C }
  - { offsetInCU: 0xC2FA, offset: 0xC2FA, size: 0x8, addend: 0x0, symName: __ZNSt3__16vectorINS0_I6SquareNS_9allocatorIS1_EEEENS2_IS4_EEE9__end_capB8ue170006Ev, symObjAddr: 0xA34, symBinAddr: 0x100003490, symSize: 0x28 }
  - { offsetInCU: 0xC31E, offset: 0xC31E, size: 0x8, addend: 0x0, symName: __ZNSt3__16vectorINS0_I6SquareNS_9allocatorIS1_EEEENS2_IS4_EEE18__construct_at_endEmRKS4_, symObjAddr: 0xA5C, symBinAddr: 0x1000034B8, symSize: 0xD0 }
  - { offsetInCU: 0xC39F, offset: 0xC39F, size: 0x8, addend: 0x0, symName: __ZNSt3__16vectorINS0_I6SquareNS_9allocatorIS1_EEEENS2_IS4_EEE7__allocB8ue170006Ev, symObjAddr: 0xB2C, symBinAddr: 0x100003588, symSize: 0x28 }
  - { offsetInCU: 0xC3C3, offset: 0xC3C3, size: 0x8, addend: 0x0, symName: __ZNKSt3__16vectorINS0_I6SquareNS_9allocatorIS1_EEEENS2_IS4_EEE11__recommendB8ue170006Em, symObjAddr: 0xB54, symBinAddr: 0x1000035B0, symSize: 0xB4 }
  - { offsetInCU: 0xC417, offset: 0xC417, size: 0x8, addend: 0x0, symName: __ZNSt3__114__split_bufferINS_6vectorI6SquareNS_9allocatorIS2_EEEERNS3_IS5_EEEC1EmmS7_, symObjAddr: 0xC08, symBinAddr: 0x100003664, symSize: 0x44 }
  - { offsetInCU: 0xC46B, offset: 0xC46B, size: 0x8, addend: 0x0, symName: __ZNSt3__114__split_bufferINS_6vectorI6SquareNS_9allocatorIS2_EEEERNS3_IS5_EEE18__construct_at_endEmRKS5_, symObjAddr: 0xC4C, symBinAddr: 0x1000036A8, symSize: 0xBC }
  - { offsetInCU: 0xC4BD, offset: 0xC4BD, size: 0x8, addend: 0x0, symName: __ZNSt3__114__split_bufferINS_6vectorI6SquareNS_9allocatorIS2_EEEERNS3_IS5_EEED1Ev, symObjAddr: 0xE18, symBinAddr: 0x100003874, symSize: 0x2C }
  - { offsetInCU: 0xC4E8, offset: 0xC4E8, size: 0x8, addend: 0x0, symName: __ZNSt3__117__compressed_pairIPNS_6vectorI6SquareNS_9allocatorIS2_EEEENS3_IS5_EEE5firstB8ue170006Ev, symObjAddr: 0xE44, symBinAddr: 0x1000038A0, symSize: 0x24 }
  - { offsetInCU: 0xC50D, offset: 0xC50D, size: 0x8, addend: 0x0, symName: __ZNSt3__122__compressed_pair_elemIPNS_6vectorI6SquareNS_9allocatorIS2_EEEELi0ELb0EE5__getB8ue170006Ev, symObjAddr: 0xE68, symBinAddr: 0x1000038C4, symSize: 0x14 }
  - { offsetInCU: 0xC54B, offset: 0xC54B, size: 0x8, addend: 0x0, symName: __ZNSt3__16vectorINS0_I6SquareNS_9allocatorIS1_EEEENS2_IS4_EEE21_ConstructTransactionC1B8ue170006ERS6_m, symObjAddr: 0xE7C, symBinAddr: 0x1000038D8, symSize: 0x3C }
  - { offsetInCU: 0xC592, offset: 0xC592, size: 0x8, addend: 0x0, symName: __ZNSt3__116allocator_traitsINS_9allocatorINS_6vectorI6SquareNS1_IS3_EEEEEEE9constructB8ue170006IS5_JRKS5_EvEEvRS6_PT_DpOT0_, symObjAddr: 0xEB8, symBinAddr: 0x100003914, symSize: 0x34 }
  - { offsetInCU: 0xC5E9, offset: 0xC5E9, size: 0x8, addend: 0x0, symName: __ZNSt3__16vectorINS0_I6SquareNS_9allocatorIS1_EEEENS2_IS4_EEE21_ConstructTransactionD1B8ue170006Ev, symObjAddr: 0xF00, symBinAddr: 0x10000395C, symSize: 0x2C }
  - { offsetInCU: 0xC612, offset: 0xC612, size: 0x8, addend: 0x0, symName: __ZNSt3__16vectorINS0_I6SquareNS_9allocatorIS1_EEEENS2_IS4_EEE21_ConstructTransactionC2B8ue170006ERS6_m, symObjAddr: 0xF2C, symBinAddr: 0x100003988, symSize: 0x4C }
  - { offsetInCU: 0xC659, offset: 0xC659, size: 0x8, addend: 0x0, symName: __ZNSt3__19allocatorINS_6vectorI6SquareNS0_IS2_EEEEE9constructB8ue170006IS4_JRKS4_EEEvPT_DpOT0_, symObjAddr: 0xF78, symBinAddr: 0x1000039D4, symSize: 0x30 }
  - { offsetInCU: 0xC6AE, offset: 0xC6AE, size: 0x8, addend: 0x0, symName: __ZNSt3__16vectorI6SquareNS_9allocatorIS1_EEEC1ERKS4_, symObjAddr: 0xFA8, symBinAddr: 0x100003A04, symSize: 0x34 }
  - { offsetInCU: 0xC6E8, offset: 0xC6E8, size: 0x8, addend: 0x0, symName: __ZNSt3__16vectorI6SquareNS_9allocatorIS1_EEEC2ERKS4_, symObjAddr: 0xFDC, symBinAddr: 0x100003A38, symSize: 0x94 }
  - { offsetInCU: 0xC72C, offset: 0xC72C, size: 0x8, addend: 0x0, symName: __ZNSt3__116allocator_traitsINS_9allocatorI6SquareEEE37select_on_container_copy_constructionB8ue170006IS3_vvEES3_RKS3_, symObjAddr: 0x1070, symBinAddr: 0x100003ACC, symSize: 0x10 }
  - { offsetInCU: 0xC75B, offset: 0xC75B, size: 0x8, addend: 0x0, symName: __ZNKSt3__16vectorI6SquareNS_9allocatorIS1_EEE7__allocB8ue170006Ev, symObjAddr: 0x1080, symBinAddr: 0x100003ADC, symSize: 0x28 }
  - { offsetInCU: 0xC785, offset: 0xC785, size: 0x8, addend: 0x0, symName: __ZNSt3__117__compressed_pairIP6SquareNS_9allocatorIS1_EEEC1B8ue170006IDnS4_EEOT_OT0_, symObjAddr: 0x10A8, symBinAddr: 0x100003B04, symSize: 0x3C }
  - { offsetInCU: 0xC7DC, offset: 0xC7DC, size: 0x8, addend: 0x0, symName: __ZNSt3__16vectorI6SquareNS_9allocatorIS1_EEE16__init_with_sizeB8ue170006IPS1_S6_EEvT_T0_m, symObjAddr: 0x10E4, symBinAddr: 0x100003B40, symSize: 0xB8 }
  - { offsetInCU: 0xC84F, offset: 0xC84F, size: 0x8, addend: 0x0, symName: __ZNKSt3__16vectorI6SquareNS_9allocatorIS1_EEE4sizeB8ue170006Ev, symObjAddr: 0x119C, symBinAddr: 0x100003BF8, symSize: 0x28 }
  - { offsetInCU: 0xC874, offset: 0xC874, size: 0x8, addend: 0x0, symName: __ZNKSt3__117__compressed_pairIP6SquareNS_9allocatorIS1_EEE6secondB8ue170006Ev, symObjAddr: 0x11C4, symBinAddr: 0x100003C20, symSize: 0x24 }
  - { offsetInCU: 0xC899, offset: 0xC899, size: 0x8, addend: 0x0, symName: __ZNKSt3__122__compressed_pair_elemINS_9allocatorI6SquareEELi1ELb1EE5__getB8ue170006Ev, symObjAddr: 0x11E8, symBinAddr: 0x100003C44, symSize: 0x14 }
  - { offsetInCU: 0xC8BE, offset: 0xC8BE, size: 0x8, addend: 0x0, symName: __ZNSt3__117__compressed_pairIP6SquareNS_9allocatorIS1_EEEC2B8ue170006IDnS4_EEOT_OT0_, symObjAddr: 0x11FC, symBinAddr: 0x100003C58, symSize: 0x44 }
  - { offsetInCU: 0xC915, offset: 0xC915, size: 0x8, addend: 0x0, symName: __ZNSt3__122__compressed_pair_elemIP6SquareLi0ELb0EEC2B8ue170006IDnvEEOT_, symObjAddr: 0x1240, symBinAddr: 0x100003C9C, symSize: 0x1C }
  - { offsetInCU: 0xC956, offset: 0xC956, size: 0x8, addend: 0x0, symName: __ZNSt3__122__compressed_pair_elemINS_9allocatorI6SquareEELi1ELb1EEC2B8ue170006IS3_vEEOT_, symObjAddr: 0x125C, symBinAddr: 0x100003CB8, symSize: 0x18 }
  - { offsetInCU: 0xC997, offset: 0xC997, size: 0x8, addend: 0x0, symName: __ZNSt3__16vectorI6SquareNS_9allocatorIS1_EEE16__destroy_vectorC1B8ue170006ERS4_, symObjAddr: 0x12B4, symBinAddr: 0x100003D10, symSize: 0x34 }
  - { offsetInCU: 0xC9CF, offset: 0xC9CF, size: 0x8, addend: 0x0, symName: __ZNSt3__16vectorI6SquareNS_9allocatorIS1_EEE11__vallocateB8ue170006Em, symObjAddr: 0x12E8, symBinAddr: 0x100003D44, symSize: 0xAC }
  - { offsetInCU: 0xCA11, offset: 0xCA11, size: 0x8, addend: 0x0, symName: __ZNSt3__16vectorI6SquareNS_9allocatorIS1_EEE18__construct_at_endIPS1_S6_EEvT_T0_m, symObjAddr: 0x1394, symBinAddr: 0x100003DF0, symSize: 0x8C }
  - { offsetInCU: 0xCA86, offset: 0xCA86, size: 0x8, addend: 0x0, symName: __ZNSt3__128__exception_guard_exceptionsINS_6vectorI6SquareNS_9allocatorIS2_EEE16__destroy_vectorEE10__completeB8ue170006Ev, symObjAddr: 0x1420, symBinAddr: 0x100003E7C, symSize: 0x1C }
  - { offsetInCU: 0xCAAB, offset: 0xCAAB, size: 0x8, addend: 0x0, symName: __ZNSt3__128__exception_guard_exceptionsINS_6vectorI6SquareNS_9allocatorIS2_EEE16__destroy_vectorEED1B8ue170006Ev, symObjAddr: 0x143C, symBinAddr: 0x100003E98, symSize: 0x2C }
  - { offsetInCU: 0xCAD4, offset: 0xCAD4, size: 0x8, addend: 0x0, symName: __ZNSt3__128__exception_guard_exceptionsINS_6vectorI6SquareNS_9allocatorIS2_EEE16__destroy_vectorEEC1B8ue170006ES6_, symObjAddr: 0x1468, symBinAddr: 0x100003EC4, symSize: 0x34 }
  - { offsetInCU: 0xCB0B, offset: 0xCB0B, size: 0x8, addend: 0x0, symName: __ZNSt3__128__exception_guard_exceptionsINS_6vectorI6SquareNS_9allocatorIS2_EEE16__destroy_vectorEEC2B8ue170006ES6_, symObjAddr: 0x149C, symBinAddr: 0x100003EF8, symSize: 0x24 }
  - { offsetInCU: 0xCB42, offset: 0xCB42, size: 0x8, addend: 0x0, symName: __ZNSt3__16vectorI6SquareNS_9allocatorIS1_EEE16__destroy_vectorC2B8ue170006ERS4_, symObjAddr: 0x14C0, symBinAddr: 0x100003F1C, symSize: 0x20 }
  - { offsetInCU: 0xCB79, offset: 0xCB79, size: 0x8, addend: 0x0, symName: __ZNKSt3__16vectorI6SquareNS_9allocatorIS1_EEE8max_sizeEv, symObjAddr: 0x14E0, symBinAddr: 0x100003F3C, symSize: 0x60 }
  - { offsetInCU: 0xCBA0, offset: 0xCBA0, size: 0x8, addend: 0x0, symName: __ZNKSt3__16vectorI6SquareNS_9allocatorIS1_EEE20__throw_length_errorB8ue170006Ev, symObjAddr: 0x1540, symBinAddr: 0x100003F9C, symSize: 0x1C }
  - { offsetInCU: 0xCBC5, offset: 0xCBC5, size: 0x8, addend: 0x0, symName: __ZNSt3__16vectorI6SquareNS_9allocatorIS1_EEE7__allocB8ue170006Ev, symObjAddr: 0x159C, symBinAddr: 0x100003FF8, symSize: 0x28 }
  - { offsetInCU: 0xCBEA, offset: 0xCBEA, size: 0x8, addend: 0x0, symName: __ZNSt3__16vectorI6SquareNS_9allocatorIS1_EEE9__end_capB8ue170006Ev, symObjAddr: 0x15C4, symBinAddr: 0x100004020, symSize: 0x28 }
  - { offsetInCU: 0xCC0F, offset: 0xCC0F, size: 0x8, addend: 0x0, symName: __ZNKSt3__16vectorI6SquareNS_9allocatorIS1_EEE14__annotate_newB8ue170006Em, symObjAddr: 0x15EC, symBinAddr: 0x100004048, symSize: 0xAC }
  - { offsetInCU: 0xCC43, offset: 0xCC43, size: 0x8, addend: 0x0, symName: __ZNSt3__116allocator_traitsINS_9allocatorI6SquareEEE8max_sizeB8ue170006IS3_vEEmRKS3_, symObjAddr: 0x16C4, symBinAddr: 0x100004120, symSize: 0x24 }
  - { offsetInCU: 0xCC71, offset: 0xCC71, size: 0x8, addend: 0x0, symName: __ZNSt3__114numeric_limitsIlE3maxB8ue170006Ev, symObjAddr: 0x16E8, symBinAddr: 0x100004144, symSize: 0x14 }
  - { offsetInCU: 0xCC99, offset: 0xCC99, size: 0x8, addend: 0x0, symName: __ZNKSt3__16__lessIvvEclB8ue170006ImmEEbRKT_RKT0_, symObjAddr: 0x1750, symBinAddr: 0x1000041AC, symSize: 0x34 }
  - { offsetInCU: 0xCCEC, offset: 0xCCEC, size: 0x8, addend: 0x0, symName: __ZNKSt3__19allocatorI6SquareE8max_sizeB8ue170006Ev, symObjAddr: 0x1784, symBinAddr: 0x1000041E0, symSize: 0x14 }
  - { offsetInCU: 0xCD11, offset: 0xCD11, size: 0x8, addend: 0x0, symName: __ZNSt3__123__libcpp_numeric_limitsIlLb1EE3maxB8ue170006Ev, symObjAddr: 0x1798, symBinAddr: 0x1000041F4, symSize: 0x8 }
  - { offsetInCU: 0xCD25, offset: 0xCD25, size: 0x8, addend: 0x0, symName: __ZNSt12length_errorC1B8ue170006EPKc, symObjAddr: 0x1804, symBinAddr: 0x100004260, symSize: 0x34 }
  - { offsetInCU: 0xCD5C, offset: 0xCD5C, size: 0x8, addend: 0x0, symName: __ZNSt12length_errorC2B8ue170006EPKc, symObjAddr: 0x1838, symBinAddr: 0x100004294, symSize: 0x4C }
  - { offsetInCU: 0xCD93, offset: 0xCD93, size: 0x8, addend: 0x0, symName: __ZNSt3__19allocatorI6SquareE8allocateB8ue170006Em, symObjAddr: 0x1884, symBinAddr: 0x1000042E0, symSize: 0x58 }
  - { offsetInCU: 0xCDC6, offset: 0xCDC6, size: 0x8, addend: 0x0, symName: __ZNSt3__117__compressed_pairIP6SquareNS_9allocatorIS1_EEE6secondB8ue170006Ev, symObjAddr: 0x195C, symBinAddr: 0x1000043B8, symSize: 0x24 }
  - { offsetInCU: 0xCDEB, offset: 0xCDEB, size: 0x8, addend: 0x0, symName: __ZNSt3__122__compressed_pair_elemINS_9allocatorI6SquareEELi1ELb1EE5__getB8ue170006Ev, symObjAddr: 0x1980, symBinAddr: 0x1000043DC, symSize: 0x14 }
  - { offsetInCU: 0xCE10, offset: 0xCE10, size: 0x8, addend: 0x0, symName: __ZNSt3__117__compressed_pairIP6SquareNS_9allocatorIS1_EEE5firstB8ue170006Ev, symObjAddr: 0x1994, symBinAddr: 0x1000043F0, symSize: 0x24 }
  - { offsetInCU: 0xCE35, offset: 0xCE35, size: 0x8, addend: 0x0, symName: __ZNSt3__122__compressed_pair_elemIP6SquareLi0ELb0EE5__getB8ue170006Ev, symObjAddr: 0x19B8, symBinAddr: 0x100004414, symSize: 0x14 }
  - { offsetInCU: 0xCE5A, offset: 0xCE5A, size: 0x8, addend: 0x0, symName: __ZNKSt3__16vectorI6SquareNS_9allocatorIS1_EEE31__annotate_contiguous_containerB8ue170006EPKvS6_S6_S6_, symObjAddr: 0x19CC, symBinAddr: 0x100004428, symSize: 0x20 }
  - { offsetInCU: 0xCEAB, offset: 0xCEAB, size: 0x8, addend: 0x0, symName: __ZNKSt3__16vectorI6SquareNS_9allocatorIS1_EEE4dataB8ue170006Ev, symObjAddr: 0x19EC, symBinAddr: 0x100004448, symSize: 0x28 }
  - { offsetInCU: 0xCED0, offset: 0xCED0, size: 0x8, addend: 0x0, symName: __ZNKSt3__16vectorI6SquareNS_9allocatorIS1_EEE8capacityB8ue170006Ev, symObjAddr: 0x1A14, symBinAddr: 0x100004470, symSize: 0x40 }
  - { offsetInCU: 0xCEF5, offset: 0xCEF5, size: 0x8, addend: 0x0, symName: __ZNKSt3__16vectorI6SquareNS_9allocatorIS1_EEE9__end_capB8ue170006Ev, symObjAddr: 0x1A68, symBinAddr: 0x1000044C4, symSize: 0x28 }
  - { offsetInCU: 0xCF1A, offset: 0xCF1A, size: 0x8, addend: 0x0, symName: __ZNKSt3__117__compressed_pairIP6SquareNS_9allocatorIS1_EEE5firstB8ue170006Ev, symObjAddr: 0x1A90, symBinAddr: 0x1000044EC, symSize: 0x24 }
  - { offsetInCU: 0xCF3F, offset: 0xCF3F, size: 0x8, addend: 0x0, symName: __ZNKSt3__122__compressed_pair_elemIP6SquareLi0ELb0EE5__getB8ue170006Ev, symObjAddr: 0x1AB4, symBinAddr: 0x100004510, symSize: 0x14 }
  - { offsetInCU: 0xCF7D, offset: 0xCF7D, size: 0x8, addend: 0x0, symName: __ZNSt3__16vectorI6SquareNS_9allocatorIS1_EEE21_ConstructTransactionC1B8ue170006ERS4_m, symObjAddr: 0x1AC8, symBinAddr: 0x100004524, symSize: 0x3C }
  - { offsetInCU: 0xCFC4, offset: 0xCFC4, size: 0x8, addend: 0x0, symName: __ZNSt3__16vectorI6SquareNS_9allocatorIS1_EEE21_ConstructTransactionD1B8ue170006Ev, symObjAddr: 0x1B84, symBinAddr: 0x1000045E0, symSize: 0x2C }
  - { offsetInCU: 0xCFED, offset: 0xCFED, size: 0x8, addend: 0x0, symName: __ZNSt3__16vectorI6SquareNS_9allocatorIS1_EEE21_ConstructTransactionC2B8ue170006ERS4_m, symObjAddr: 0x1BB0, symBinAddr: 0x10000460C, symSize: 0x44 }
  - { offsetInCU: 0xD052, offset: 0xD052, size: 0x8, addend: 0x0, symName: __ZNSt3__14pairIP6SquareS2_EC1B8ue170006IS2_S2_LPv0EEEOT_OT0_, symObjAddr: 0x1D24, symBinAddr: 0x100004780, symSize: 0x3C }
  - { offsetInCU: 0xD0AF, offset: 0xD0AF, size: 0x8, addend: 0x0, symName: __ZNSt3__14pairIP6SquareS2_EC2B8ue170006IS2_S2_LPv0EEEOT_OT0_, symObjAddr: 0x1D60, symBinAddr: 0x1000047BC, symSize: 0x34 }
  - { offsetInCU: 0xD116, offset: 0xD116, size: 0x8, addend: 0x0, symName: __ZNKSt3__114__copy_trivialclB8ue170006I6SquareS2_Li0EEENS_4pairIPT_PT0_EES5_S5_S7_, symObjAddr: 0x1F10, symBinAddr: 0x10000496C, symSize: 0x48 }
  - { offsetInCU: 0xD17D, offset: 0xD17D, size: 0x8, addend: 0x0, symName: __ZNSt3__14pairIP6SquareS2_EC1B8ue170006IRS2_S2_LPv0EEEOT_OT0_, symObjAddr: 0x20A0, symBinAddr: 0x100004AFC, symSize: 0x3C }
  - { offsetInCU: 0xD1DA, offset: 0xD1DA, size: 0x8, addend: 0x0, symName: __ZNSt3__14pairIP6SquareS2_EC2B8ue170006IRS2_S2_LPv0EEEOT_OT0_, symObjAddr: 0x20DC, symBinAddr: 0x100004B38, symSize: 0x34 }
  - { offsetInCU: 0xD237, offset: 0xD237, size: 0x8, addend: 0x0, symName: __ZNSt3__118__unwrap_iter_implIP6SquareLb1EE8__unwrapB8ue170006ES2_, symObjAddr: 0x2110, symBinAddr: 0x100004B6C, symSize: 0x24 }
  - { offsetInCU: 0xD25A, offset: 0xD25A, size: 0x8, addend: 0x0, symName: __ZNSt3__118__unwrap_iter_implIP6SquareLb1EE8__rewrapB8ue170006ES2_S2_, symObjAddr: 0x2134, symBinAddr: 0x100004B90, symSize: 0x50 }
  - { offsetInCU: 0xD28B, offset: 0xD28B, size: 0x8, addend: 0x0, symName: __ZNSt3__16vectorI6SquareNS_9allocatorIS1_EEE21_ConstructTransactionD2B8ue170006Ev, symObjAddr: 0x2184, symBinAddr: 0x100004BE0, symSize: 0x20 }
  - { offsetInCU: 0xD2B4, offset: 0xD2B4, size: 0x8, addend: 0x0, symName: __ZNSt3__128__exception_guard_exceptionsINS_6vectorI6SquareNS_9allocatorIS2_EEE16__destroy_vectorEED2B8ue170006Ev, symObjAddr: 0x21A4, symBinAddr: 0x100004C00, symSize: 0x50 }
  - { offsetInCU: 0xD2DD, offset: 0xD2DD, size: 0x8, addend: 0x0, symName: __ZNSt3__16vectorI6SquareNS_9allocatorIS1_EEE16__destroy_vectorclB8ue170006Ev, symObjAddr: 0x21F4, symBinAddr: 0x100004C50, symSize: 0x90 }
  - { offsetInCU: 0xD302, offset: 0xD302, size: 0x8, addend: 0x0, symName: __ZNSt3__16vectorI6SquareNS_9allocatorIS1_EEE7__clearB8ue170006Ev, symObjAddr: 0x2284, symBinAddr: 0x100004CE0, symSize: 0x28 }
  - { offsetInCU: 0xD327, offset: 0xD327, size: 0x8, addend: 0x0, symName: __ZNKSt3__16vectorI6SquareNS_9allocatorIS1_EEE17__annotate_deleteB8ue170006Ev, symObjAddr: 0x22AC, symBinAddr: 0x100004D08, symSize: 0xB8 }
  - { offsetInCU: 0xD34C, offset: 0xD34C, size: 0x8, addend: 0x0, symName: __ZNSt3__116allocator_traitsINS_9allocatorI6SquareEEE10deallocateB8ue170006ERS3_PS2_m, symObjAddr: 0x2364, symBinAddr: 0x100004DC0, symSize: 0x34 }
  - { offsetInCU: 0xD38E, offset: 0xD38E, size: 0x8, addend: 0x0, symName: __ZNSt3__16vectorI6SquareNS_9allocatorIS1_EEE22__base_destruct_at_endB8ue170006EPS1_, symObjAddr: 0x2398, symBinAddr: 0x100004DF4, symSize: 0x8C }
  - { offsetInCU: 0xD3D1, offset: 0xD3D1, size: 0x8, addend: 0x0, symName: __ZNSt3__116allocator_traitsINS_9allocatorI6SquareEEE7destroyB8ue170006IS2_vEEvRS3_PT_, symObjAddr: 0x2424, symBinAddr: 0x100004E80, symSize: 0x2C }
  - { offsetInCU: 0xD40E, offset: 0xD40E, size: 0x8, addend: 0x0, symName: __ZNSt3__19allocatorI6SquareE7destroyB8ue170006EPS1_, symObjAddr: 0x2450, symBinAddr: 0x100004EAC, symSize: 0x14 }
  - { offsetInCU: 0xD441, offset: 0xD441, size: 0x8, addend: 0x0, symName: __ZNSt3__19allocatorI6SquareE10deallocateB8ue170006EPS1_m, symObjAddr: 0x2464, symBinAddr: 0x100004EC0, symSize: 0x40 }
  - { offsetInCU: 0xD482, offset: 0xD482, size: 0x8, addend: 0x0, symName: __ZNSt3__16vectorINS0_I6SquareNS_9allocatorIS1_EEEENS2_IS4_EEE21_ConstructTransactionD2B8ue170006Ev, symObjAddr: 0x2520, symBinAddr: 0x100004F7C, symSize: 0x20 }
  - { offsetInCU: 0xD4AB, offset: 0xD4AB, size: 0x8, addend: 0x0, symName: __ZNSt3__117__compressed_pairIPNS_6vectorI6SquareNS_9allocatorIS2_EEEENS3_IS5_EEE6secondB8ue170006Ev, symObjAddr: 0x2540, symBinAddr: 0x100004F9C, symSize: 0x24 }
  - { offsetInCU: 0xD4D0, offset: 0xD4D0, size: 0x8, addend: 0x0, symName: __ZNSt3__122__compressed_pair_elemINS_9allocatorINS_6vectorI6SquareNS1_IS3_EEEEEELi1ELb1EE5__getB8ue170006Ev, symObjAddr: 0x2564, symBinAddr: 0x100004FC0, symSize: 0x14 }
  - { offsetInCU: 0xD4F4, offset: 0xD4F4, size: 0x8, addend: 0x0, symName: __ZNKSt3__16vectorINS0_I6SquareNS_9allocatorIS1_EEEENS2_IS4_EEE8max_sizeEv, symObjAddr: 0x2578, symBinAddr: 0x100004FD4, symSize: 0x60 }
  - { offsetInCU: 0xD51B, offset: 0xD51B, size: 0x8, addend: 0x0, symName: __ZNKSt3__16vectorINS0_I6SquareNS_9allocatorIS1_EEEENS2_IS4_EEE20__throw_length_errorB8ue170006Ev, symObjAddr: 0x25D8, symBinAddr: 0x100005034, symSize: 0x1C }
  - { offsetInCU: 0xD540, offset: 0xD540, size: 0x8, addend: 0x0, symName: __ZNKSt3__16vectorINS0_I6SquareNS_9allocatorIS1_EEEENS2_IS4_EEE8capacityB8ue170006Ev, symObjAddr: 0x25F4, symBinAddr: 0x100005050, symSize: 0x40 }
  - { offsetInCU: 0xD56F, offset: 0xD56F, size: 0x8, addend: 0x0, symName: __ZNSt3__116allocator_traitsINS_9allocatorINS_6vectorI6SquareNS1_IS3_EEEEEEE8max_sizeB8ue170006IS6_vEEmRKS6_, symObjAddr: 0x2660, symBinAddr: 0x1000050BC, symSize: 0x24 }
  - { offsetInCU: 0xD59D, offset: 0xD59D, size: 0x8, addend: 0x0, symName: __ZNKSt3__16vectorINS0_I6SquareNS_9allocatorIS1_EEEENS2_IS4_EEE7__allocB8ue170006Ev, symObjAddr: 0x2684, symBinAddr: 0x1000050E0, symSize: 0x28 }
  - { offsetInCU: 0xD5C2, offset: 0xD5C2, size: 0x8, addend: 0x0, symName: __ZNKSt3__19allocatorINS_6vectorI6SquareNS0_IS2_EEEEE8max_sizeB8ue170006Ev, symObjAddr: 0x26AC, symBinAddr: 0x100005108, symSize: 0x18 }
  - { offsetInCU: 0xD5E7, offset: 0xD5E7, size: 0x8, addend: 0x0, symName: __ZNKSt3__117__compressed_pairIPNS_6vectorI6SquareNS_9allocatorIS2_EEEENS3_IS5_EEE6secondB8ue170006Ev, symObjAddr: 0x26C4, symBinAddr: 0x100005120, symSize: 0x24 }
  - { offsetInCU: 0xD60C, offset: 0xD60C, size: 0x8, addend: 0x0, symName: __ZNKSt3__122__compressed_pair_elemINS_9allocatorINS_6vectorI6SquareNS1_IS3_EEEEEELi1ELb1EE5__getB8ue170006Ev, symObjAddr: 0x26E8, symBinAddr: 0x100005144, symSize: 0x14 }
  - { offsetInCU: 0xD631, offset: 0xD631, size: 0x8, addend: 0x0, symName: __ZNKSt3__16vectorINS0_I6SquareNS_9allocatorIS1_EEEENS2_IS4_EEE9__end_capB8ue170006Ev, symObjAddr: 0x26FC, symBinAddr: 0x100005158, symSize: 0x28 }
  - { offsetInCU: 0xD656, offset: 0xD656, size: 0x8, addend: 0x0, symName: __ZNKSt3__117__compressed_pairIPNS_6vectorI6SquareNS_9allocatorIS2_EEEENS3_IS5_EEE5firstB8ue170006Ev, symObjAddr: 0x2724, symBinAddr: 0x100005180, symSize: 0x24 }
  - { offsetInCU: 0xD67B, offset: 0xD67B, size: 0x8, addend: 0x0, symName: __ZNKSt3__122__compressed_pair_elemIPNS_6vectorI6SquareNS_9allocatorIS2_EEEELi0ELb0EE5__getB8ue170006Ev, symObjAddr: 0x2748, symBinAddr: 0x1000051A4, symSize: 0x14 }
  - { offsetInCU: 0xD6A0, offset: 0xD6A0, size: 0x8, addend: 0x0, symName: __ZNSt3__114__split_bufferINS_6vectorI6SquareNS_9allocatorIS2_EEEERNS3_IS5_EEEC2EmmS7_, symObjAddr: 0x27B0, symBinAddr: 0x10000520C, symSize: 0xE0 }
  - { offsetInCU: 0xD713, offset: 0xD713, size: 0x8, addend: 0x0, symName: __ZNSt3__117__compressed_pairIPNS_6vectorI6SquareNS_9allocatorIS2_EEEERNS3_IS5_EEEC1B8ue170006IDnS8_EEOT_OT0_, symObjAddr: 0x2890, symBinAddr: 0x1000052EC, symSize: 0x3C }
  - { offsetInCU: 0xD76A, offset: 0xD76A, size: 0x8, addend: 0x0, symName: __ZNSt3__114__split_bufferINS_6vectorI6SquareNS_9allocatorIS2_EEEERNS3_IS5_EEE7__allocB8ue170006Ev, symObjAddr: 0x290C, symBinAddr: 0x100005368, symSize: 0x28 }
  - { offsetInCU: 0xD78F, offset: 0xD78F, size: 0x8, addend: 0x0, symName: __ZNSt3__114__split_bufferINS_6vectorI6SquareNS_9allocatorIS2_EEEERNS3_IS5_EEE9__end_capB8ue170006Ev, symObjAddr: 0x2934, symBinAddr: 0x100005390, symSize: 0x28 }
  - { offsetInCU: 0xD7B4, offset: 0xD7B4, size: 0x8, addend: 0x0, symName: __ZNSt3__117__compressed_pairIPNS_6vectorI6SquareNS_9allocatorIS2_EEEERNS3_IS5_EEEC2B8ue170006IDnS8_EEOT_OT0_, symObjAddr: 0x295C, symBinAddr: 0x1000053B8, symSize: 0x48 }
  - { offsetInCU: 0xD80B, offset: 0xD80B, size: 0x8, addend: 0x0, symName: __ZNSt3__122__compressed_pair_elemIRNS_9allocatorINS_6vectorI6SquareNS1_IS3_EEEEEELi1ELb0EEC2B8ue170006IS7_vEEOT_, symObjAddr: 0x29A4, symBinAddr: 0x100005400, symSize: 0x20 }
  - { offsetInCU: 0xD84C, offset: 0xD84C, size: 0x8, addend: 0x0, symName: __ZNSt3__19allocatorINS_6vectorI6SquareNS0_IS2_EEEEE8allocateB8ue170006Em, symObjAddr: 0x29C4, symBinAddr: 0x100005420, symSize: 0x5C }
  - { offsetInCU: 0xD87F, offset: 0xD87F, size: 0x8, addend: 0x0, symName: __ZNSt3__117__compressed_pairIPNS_6vectorI6SquareNS_9allocatorIS2_EEEERNS3_IS5_EEE6secondB8ue170006Ev, symObjAddr: 0x2A20, symBinAddr: 0x10000547C, symSize: 0x28 }
  - { offsetInCU: 0xD8A4, offset: 0xD8A4, size: 0x8, addend: 0x0, symName: __ZNSt3__122__compressed_pair_elemIRNS_9allocatorINS_6vectorI6SquareNS1_IS3_EEEEEELi1ELb0EE5__getB8ue170006Ev, symObjAddr: 0x2A48, symBinAddr: 0x1000054A4, symSize: 0x18 }
  - { offsetInCU: 0xD8C9, offset: 0xD8C9, size: 0x8, addend: 0x0, symName: __ZNSt3__117__compressed_pairIPNS_6vectorI6SquareNS_9allocatorIS2_EEEERNS3_IS5_EEE5firstB8ue170006Ev, symObjAddr: 0x2A60, symBinAddr: 0x1000054BC, symSize: 0x24 }
  - { offsetInCU: 0xD8F8, offset: 0xD8F8, size: 0x8, addend: 0x0, symName: __ZNSt3__114__split_bufferINS_6vectorI6SquareNS_9allocatorIS2_EEEERNS3_IS5_EEE21_ConstructTransactionC1B8ue170006EPPS5_m, symObjAddr: 0x2A84, symBinAddr: 0x1000054E0, symSize: 0x3C }
  - { offsetInCU: 0xD93D, offset: 0xD93D, size: 0x8, addend: 0x0, symName: __ZNSt3__114__split_bufferINS_6vectorI6SquareNS_9allocatorIS2_EEEERNS3_IS5_EEE21_ConstructTransactionD1B8ue170006Ev, symObjAddr: 0x2AC0, symBinAddr: 0x10000551C, symSize: 0x2C }
  - { offsetInCU: 0xD966, offset: 0xD966, size: 0x8, addend: 0x0, symName: __ZNSt3__114__split_bufferINS_6vectorI6SquareNS_9allocatorIS2_EEEERNS3_IS5_EEE21_ConstructTransactionC2B8ue170006EPPS5_m, symObjAddr: 0x2AEC, symBinAddr: 0x100005548, symSize: 0x4C }
  - { offsetInCU: 0xD9AB, offset: 0xD9AB, size: 0x8, addend: 0x0, symName: __ZNSt3__114__split_bufferINS_6vectorI6SquareNS_9allocatorIS2_EEEERNS3_IS5_EEE21_ConstructTransactionD2B8ue170006Ev, symObjAddr: 0x2B38, symBinAddr: 0x100005594, symSize: 0x20 }
  - { offsetInCU: 0xD9D4, offset: 0xD9D4, size: 0x8, addend: 0x0, symName: __ZNKSt3__16vectorINS0_I6SquareNS_9allocatorIS1_EEEENS2_IS4_EEE17__annotate_deleteB8ue170006Ev, symObjAddr: 0x2B58, symBinAddr: 0x1000055B4, symSize: 0xD4 }
  - { offsetInCU: 0xD9F9, offset: 0xD9F9, size: 0x8, addend: 0x0, symName: __ZNSt3__116reverse_iteratorIPNS_6vectorI6SquareNS_9allocatorIS2_EEEEEC1B8ue170006ES6_, symObjAddr: 0x2D58, symBinAddr: 0x1000057B4, symSize: 0x34 }
  - { offsetInCU: 0xDA30, offset: 0xDA30, size: 0x8, addend: 0x0, symName: __ZNKSt3__116reverse_iteratorIPNS_6vectorI6SquareNS_9allocatorIS2_EEEEE4baseB8ue170006Ev, symObjAddr: 0x2D8C, symBinAddr: 0x1000057E8, symSize: 0x18 }
  - { offsetInCU: 0xDA55, offset: 0xDA55, size: 0x8, addend: 0x0, symName: __ZNKSt3__16vectorINS0_I6SquareNS_9allocatorIS1_EEEENS2_IS4_EEE14__annotate_newB8ue170006Em, symObjAddr: 0x2DE0, symBinAddr: 0x10000583C, symSize: 0xC8 }
  - { offsetInCU: 0xDA89, offset: 0xDA89, size: 0x8, addend: 0x0, symName: __ZNKSt3__16vectorINS0_I6SquareNS_9allocatorIS1_EEEENS2_IS4_EEE31__annotate_contiguous_containerB8ue170006EPKvS8_S8_S8_, symObjAddr: 0x2EA8, symBinAddr: 0x100005904, symSize: 0x20 }
  - { offsetInCU: 0xDADA, offset: 0xDADA, size: 0x8, addend: 0x0, symName: __ZNKSt3__16vectorINS0_I6SquareNS_9allocatorIS1_EEEENS2_IS4_EEE4dataB8ue170006Ev, symObjAddr: 0x2EC8, symBinAddr: 0x100005924, symSize: 0x28 }
  - { offsetInCU: 0xDAFF, offset: 0xDAFF, size: 0x8, addend: 0x0, symName: __ZNSt3__129_AllocatorDestroyRangeReverseINS_9allocatorINS_6vectorI6SquareNS1_IS3_EEEEEENS_16reverse_iteratorIPS5_EEEC1B8ue170006ERS6_RS9_SC_, symObjAddr: 0x2F3C, symBinAddr: 0x100005998, symSize: 0x44 }
  - { offsetInCU: 0xDB55, offset: 0xDB55, size: 0x8, addend: 0x0, symName: __ZNSt3__116allocator_traitsINS_9allocatorINS_6vectorI6SquareNS1_IS3_EEEEEEE9constructB8ue170006IS5_JS5_EvEEvRS6_PT_DpOT0_, symObjAddr: 0x2FC8, symBinAddr: 0x100005A24, symSize: 0x34 }
  - { offsetInCU: 0xDBAC, offset: 0xDBAC, size: 0x8, addend: 0x0, symName: __ZNKSt3__116reverse_iteratorIPNS_6vectorI6SquareNS_9allocatorIS2_EEEEEdeB8ue170006Ev, symObjAddr: 0x3020, symBinAddr: 0x100005A7C, symSize: 0x28 }
  - { offsetInCU: 0xDBDF, offset: 0xDBDF, size: 0x8, addend: 0x0, symName: __ZNSt3__116reverse_iteratorIPNS_6vectorI6SquareNS_9allocatorIS2_EEEEEppB8ue170006Ev, symObjAddr: 0x3048, symBinAddr: 0x100005AA4, symSize: 0x20 }
  - { offsetInCU: 0xDC04, offset: 0xDC04, size: 0x8, addend: 0x0, symName: __ZNSt3__128__exception_guard_exceptionsINS_29_AllocatorDestroyRangeReverseINS_9allocatorINS_6vectorI6SquareNS2_IS4_EEEEEENS_16reverse_iteratorIPS6_EEEEE10__completeB8ue170006Ev, symObjAddr: 0x3068, symBinAddr: 0x100005AC4, symSize: 0x1C }
  - { offsetInCU: 0xDC29, offset: 0xDC29, size: 0x8, addend: 0x0, symName: __ZNSt3__128__exception_guard_exceptionsINS_29_AllocatorDestroyRangeReverseINS_9allocatorINS_6vectorI6SquareNS2_IS4_EEEEEENS_16reverse_iteratorIPS6_EEEEED1B8ue170006Ev, symObjAddr: 0x3084, symBinAddr: 0x100005AE0, symSize: 0x2C }
  - { offsetInCU: 0xDC52, offset: 0xDC52, size: 0x8, addend: 0x0, symName: __ZNSt3__128__exception_guard_exceptionsINS_29_AllocatorDestroyRangeReverseINS_9allocatorINS_6vectorI6SquareNS2_IS4_EEEEEENS_16reverse_iteratorIPS6_EEEEEC1B8ue170006ESB_, symObjAddr: 0x30B0, symBinAddr: 0x100005B0C, symSize: 0x34 }
  - { offsetInCU: 0xDC8A, offset: 0xDC8A, size: 0x8, addend: 0x0, symName: __ZNSt3__128__exception_guard_exceptionsINS_29_AllocatorDestroyRangeReverseINS_9allocatorINS_6vectorI6SquareNS2_IS4_EEEEEENS_16reverse_iteratorIPS6_EEEEEC2B8ue170006ESB_, symObjAddr: 0x30E4, symBinAddr: 0x100005B40, symSize: 0x30 }
  - { offsetInCU: 0xDCC2, offset: 0xDCC2, size: 0x8, addend: 0x0, symName: __ZNSt3__129_AllocatorDestroyRangeReverseINS_9allocatorINS_6vectorI6SquareNS1_IS3_EEEEEENS_16reverse_iteratorIPS5_EEEC2B8ue170006ERS6_RS9_SC_, symObjAddr: 0x3114, symBinAddr: 0x100005B70, symSize: 0x38 }
  - { offsetInCU: 0xDD18, offset: 0xDD18, size: 0x8, addend: 0x0, symName: __ZNSt3__19allocatorINS_6vectorI6SquareNS0_IS2_EEEEE9constructB8ue170006IS4_JS4_EEEvPT_DpOT0_, symObjAddr: 0x314C, symBinAddr: 0x100005BA8, symSize: 0x30 }
  - { offsetInCU: 0xDD6D, offset: 0xDD6D, size: 0x8, addend: 0x0, symName: __ZNSt3__16vectorI6SquareNS_9allocatorIS1_EEEC1B8ue170006EOS4_, symObjAddr: 0x317C, symBinAddr: 0x100005BD8, symSize: 0x34 }
  - { offsetInCU: 0xDDA7, offset: 0xDDA7, size: 0x8, addend: 0x0, symName: __ZNSt3__16vectorI6SquareNS_9allocatorIS1_EEEC2B8ue170006EOS4_, symObjAddr: 0x31B0, symBinAddr: 0x100005C0C, symSize: 0xC4 }
  - { offsetInCU: 0xDDE6, offset: 0xDDE6, size: 0x8, addend: 0x0, symName: __ZNSt3__119__to_address_helperINS_16reverse_iteratorIPNS_6vectorI6SquareNS_9allocatorIS3_EEEEEEvE6__callB8ue170006ERKS8_, symObjAddr: 0x3274, symBinAddr: 0x100005CD0, symSize: 0x38 }
  - { offsetInCU: 0xDE09, offset: 0xDE09, size: 0x8, addend: 0x0, symName: __ZNKSt3__116reverse_iteratorIPNS_6vectorI6SquareNS_9allocatorIS2_EEEEEptB8ue170006Ev, symObjAddr: 0x32AC, symBinAddr: 0x100005D08, symSize: 0x24 }
  - { offsetInCU: 0xDE2E, offset: 0xDE2E, size: 0x8, addend: 0x0, symName: __ZNSt3__128__exception_guard_exceptionsINS_29_AllocatorDestroyRangeReverseINS_9allocatorINS_6vectorI6SquareNS2_IS4_EEEEEENS_16reverse_iteratorIPS6_EEEEED2B8ue170006Ev, symObjAddr: 0x32D0, symBinAddr: 0x100005D2C, symSize: 0x50 }
  - { offsetInCU: 0xDE57, offset: 0xDE57, size: 0x8, addend: 0x0, symName: __ZNKSt3__129_AllocatorDestroyRangeReverseINS_9allocatorINS_6vectorI6SquareNS1_IS3_EEEEEENS_16reverse_iteratorIPS5_EEEclB8ue170006Ev, symObjAddr: 0x3320, symBinAddr: 0x100005D7C, symSize: 0xB4 }
  - { offsetInCU: 0xDE7D, offset: 0xDE7D, size: 0x8, addend: 0x0, symName: __ZNSt3__116reverse_iteratorINS0_IPNS_6vectorI6SquareNS_9allocatorIS2_EEEEEEEC1B8ue170006ES7_, symObjAddr: 0x3444, symBinAddr: 0x100005EA0, symSize: 0x3C }
  - { offsetInCU: 0xDEB4, offset: 0xDEB4, size: 0x8, addend: 0x0, symName: __ZNSt3__116allocator_traitsINS_9allocatorINS_6vectorI6SquareNS1_IS3_EEEEEEE7destroyB8ue170006IS5_vEEvRS6_PT_, symObjAddr: 0x34E0, symBinAddr: 0x100005F3C, symSize: 0x2C }
  - { offsetInCU: 0xDEF1, offset: 0xDEF1, size: 0x8, addend: 0x0, symName: __ZNSt3__116reverse_iteratorINS0_IPNS_6vectorI6SquareNS_9allocatorIS2_EEEEEEEppB8ue170006Ev, symObjAddr: 0x3530, symBinAddr: 0x100005F8C, symSize: 0x30 }
  - { offsetInCU: 0xDF16, offset: 0xDF16, size: 0x8, addend: 0x0, symName: __ZNKSt3__116reverse_iteratorINS0_IPNS_6vectorI6SquareNS_9allocatorIS2_EEEEEEE4baseB8ue170006Ev, symObjAddr: 0x3560, symBinAddr: 0x100005FBC, symSize: 0x24 }
  - { offsetInCU: 0xDF3B, offset: 0xDF3B, size: 0x8, addend: 0x0, symName: __ZNSt3__19allocatorINS_6vectorI6SquareNS0_IS2_EEEEE7destroyB8ue170006EPS4_, symObjAddr: 0x3584, symBinAddr: 0x100005FE0, symSize: 0x28 }
  - { offsetInCU: 0xDF73, offset: 0xDF73, size: 0x8, addend: 0x0, symName: __ZNSt3__119__to_address_helperINS_16reverse_iteratorINS1_IPNS_6vectorI6SquareNS_9allocatorIS3_EEEEEEEEvE6__callB8ue170006ERKS9_, symObjAddr: 0x35AC, symBinAddr: 0x100006008, symSize: 0x38 }
  - { offsetInCU: 0xDF96, offset: 0xDF96, size: 0x8, addend: 0x0, symName: __ZNKSt3__116reverse_iteratorINS0_IPNS_6vectorI6SquareNS_9allocatorIS2_EEEEEEEptB8ue170006Ev, symObjAddr: 0x35E4, symBinAddr: 0x100006040, symSize: 0x24 }
  - { offsetInCU: 0xDFBB, offset: 0xDFBB, size: 0x8, addend: 0x0, symName: __ZNKSt3__116reverse_iteratorINS0_IPNS_6vectorI6SquareNS_9allocatorIS2_EEEEEEEdeB8ue170006Ev, symObjAddr: 0x3608, symBinAddr: 0x100006064, symSize: 0x34 }
  - { offsetInCU: 0xDFEE, offset: 0xDFEE, size: 0x8, addend: 0x0, symName: __ZNSt3__116reverse_iteratorIPNS_6vectorI6SquareNS_9allocatorIS2_EEEEEmmB8ue170006Ev, symObjAddr: 0x363C, symBinAddr: 0x100006098, symSize: 0x20 }
  - { offsetInCU: 0xE013, offset: 0xE013, size: 0x8, addend: 0x0, symName: __ZNSt3__116reverse_iteratorINS0_IPNS_6vectorI6SquareNS_9allocatorIS2_EEEEEEEC2B8ue170006ES7_, symObjAddr: 0x365C, symBinAddr: 0x1000060B8, symSize: 0x2C }
  - { offsetInCU: 0xE04A, offset: 0xE04A, size: 0x8, addend: 0x0, symName: __ZNSt3__116reverse_iteratorIPNS_6vectorI6SquareNS_9allocatorIS2_EEEEEC2B8ue170006ES6_, symObjAddr: 0x3688, symBinAddr: 0x1000060E4, symSize: 0x28 }
  - { offsetInCU: 0xE081, offset: 0xE081, size: 0x8, addend: 0x0, symName: __ZNSt3__114__split_bufferINS_6vectorI6SquareNS_9allocatorIS2_EEEERNS3_IS5_EEED2Ev, symObjAddr: 0x36B0, symBinAddr: 0x10000610C, symSize: 0x8C }
  - { offsetInCU: 0xE0AC, offset: 0xE0AC, size: 0x8, addend: 0x0, symName: __ZNSt3__114__split_bufferINS_6vectorI6SquareNS_9allocatorIS2_EEEERNS3_IS5_EEE5clearB8ue170006Ev, symObjAddr: 0x373C, symBinAddr: 0x100006198, symSize: 0x28 }
  - { offsetInCU: 0xE0D1, offset: 0xE0D1, size: 0x8, addend: 0x0, symName: __ZNSt3__116allocator_traitsINS_9allocatorINS_6vectorI6SquareNS1_IS3_EEEEEEE10deallocateB8ue170006ERS6_PS5_m, symObjAddr: 0x3764, symBinAddr: 0x1000061C0, symSize: 0x34 }
  - { offsetInCU: 0xE113, offset: 0xE113, size: 0x8, addend: 0x0, symName: __ZNKSt3__114__split_bufferINS_6vectorI6SquareNS_9allocatorIS2_EEEERNS3_IS5_EEE8capacityB8ue170006Ev, symObjAddr: 0x3798, symBinAddr: 0x1000061F4, symSize: 0x40 }
  - { offsetInCU: 0xE138, offset: 0xE138, size: 0x8, addend: 0x0, symName: __ZNSt3__114__split_bufferINS_6vectorI6SquareNS_9allocatorIS2_EEEERNS3_IS5_EEE17__destruct_at_endB8ue170006EPS5_, symObjAddr: 0x37D8, symBinAddr: 0x100006234, symSize: 0x2C }
  - { offsetInCU: 0xE16A, offset: 0xE16A, size: 0x8, addend: 0x0, symName: __ZNSt3__114__split_bufferINS_6vectorI6SquareNS_9allocatorIS2_EEEERNS3_IS5_EEE17__destruct_at_endB8ue170006EPS5_NS_17integral_constantIbLb0EEE, symObjAddr: 0x3804, symBinAddr: 0x100006260, symSize: 0x80 }
  - { offsetInCU: 0xE1AA, offset: 0xE1AA, size: 0x8, addend: 0x0, symName: __ZNSt3__19allocatorINS_6vectorI6SquareNS0_IS2_EEEEE10deallocateB8ue170006EPS4_m, symObjAddr: 0x3884, symBinAddr: 0x1000062E0, symSize: 0x44 }
  - { offsetInCU: 0xE1EB, offset: 0xE1EB, size: 0x8, addend: 0x0, symName: __ZNKSt3__114__split_bufferINS_6vectorI6SquareNS_9allocatorIS2_EEEERNS3_IS5_EEE9__end_capB8ue170006Ev, symObjAddr: 0x38C8, symBinAddr: 0x100006324, symSize: 0x28 }
  - { offsetInCU: 0xE210, offset: 0xE210, size: 0x8, addend: 0x0, symName: __ZNKSt3__117__compressed_pairIPNS_6vectorI6SquareNS_9allocatorIS2_EEEERNS3_IS5_EEE5firstB8ue170006Ev, symObjAddr: 0x38F0, symBinAddr: 0x10000634C, symSize: 0x24 }
  - { offsetInCU: 0xE235, offset: 0xE235, size: 0x8, addend: 0x0, symName: __ZNSt3__16vectorINS0_I6SquareNS_9allocatorIS1_EEEENS2_IS4_EEE22__base_destruct_at_endB8ue170006EPS4_, symObjAddr: 0x3914, symBinAddr: 0x100006370, symSize: 0x8C }
  - { offsetInCU: 0xE278, offset: 0xE278, size: 0x8, addend: 0x0, symName: __ZNKSt3__16vectorINS0_I6SquareNS_9allocatorIS1_EEEENS2_IS4_EEE17__annotate_shrinkB8ue170006Em, symObjAddr: 0x39A0, symBinAddr: 0x1000063FC, symSize: 0xD0 }
  - { offsetInCU: 0xE2AC, offset: 0xE2AC, size: 0x8, addend: 0x0, symName: __ZNSt3__16vectorI6SquareNS_9allocatorIS1_EEEC2Em, symObjAddr: 0x3A70, symBinAddr: 0x1000064CC, symSize: 0xD4 }
  - { offsetInCU: 0xE2FB, offset: 0xE2FB, size: 0x8, addend: 0x0, symName: __ZNSt3__117__compressed_pairIP6SquareNS_9allocatorIS1_EEEC1B8ue170006IDnNS_18__default_init_tagEEEOT_OT0_, symObjAddr: 0x3B44, symBinAddr: 0x1000065A0, symSize: 0x3C }
  - { offsetInCU: 0xE351, offset: 0xE351, size: 0x8, addend: 0x0, symName: __ZNSt3__16vectorI6SquareNS_9allocatorIS1_EEE18__construct_at_endEm, symObjAddr: 0x3B80, symBinAddr: 0x1000065DC, symSize: 0xC8 }
  - { offsetInCU: 0xE3C3, offset: 0xE3C3, size: 0x8, addend: 0x0, symName: __ZNSt3__117__compressed_pairIP6SquareNS_9allocatorIS1_EEEC2B8ue170006IDnNS_18__default_init_tagEEEOT_OT0_, symObjAddr: 0x3C48, symBinAddr: 0x1000066A4, symSize: 0x40 }
  - { offsetInCU: 0xE41A, offset: 0xE41A, size: 0x8, addend: 0x0, symName: __ZNSt3__122__compressed_pair_elemINS_9allocatorI6SquareEELi1ELb1EEC2B8ue170006ENS_18__default_init_tagE, symObjAddr: 0x3C88, symBinAddr: 0x1000066E4, symSize: 0x2C }
  - { offsetInCU: 0xE44E, offset: 0xE44E, size: 0x8, addend: 0x0, symName: __ZNSt3__19allocatorI6SquareEC2B8ue170006Ev, symObjAddr: 0x3CB4, symBinAddr: 0x100006710, symSize: 0x2C }
  - { offsetInCU: 0xE477, offset: 0xE477, size: 0x8, addend: 0x0, symName: __ZNSt3__116__non_trivial_ifILb1ENS_9allocatorI6SquareEEEC2B8ue170006Ev, symObjAddr: 0x3CE0, symBinAddr: 0x10000673C, symSize: 0x14 }
  - { offsetInCU: 0xE4A0, offset: 0xE4A0, size: 0x8, addend: 0x0, symName: __ZNSt3__116allocator_traitsINS_9allocatorI6SquareEEE9constructB8ue170006IS2_JEvEEvRS3_PT_DpOT0_, symObjAddr: 0x3CF4, symBinAddr: 0x100006750, symSize: 0x2C }
  - { offsetInCU: 0xE4E2, offset: 0xE4E2, size: 0x8, addend: 0x0, symName: __ZNSt3__19allocatorI6SquareE9constructB8ue170006IS1_JEEEvPT_DpOT0_, symObjAddr: 0x3D20, symBinAddr: 0x10000677C, symSize: 0x28 }
  - { offsetInCU: 0xE523, offset: 0xE523, size: 0x8, addend: 0x0, symName: __ZN6SquareC1Ev, symObjAddr: 0x3D48, symBinAddr: 0x1000067A4, symSize: 0x2C }
  - { offsetInCU: 0xE54C, offset: 0xE54C, size: 0x8, addend: 0x0, symName: __ZN6SquareC2Ev, symObjAddr: 0x3D74, symBinAddr: 0x1000067D0, symSize: 0x1C }
  - { offsetInCU: 0xE575, offset: 0xE575, size: 0x8, addend: 0x0, symName: __ZNSt3__16vectorI6SquareNS_9allocatorIS1_EEED2B8ue170006Ev, symObjAddr: 0x3D90, symBinAddr: 0x1000067EC, symSize: 0x40 }
  - { offsetInCU: 0xE59E, offset: 0xE59E, size: 0x8, addend: 0x0, symName: __ZN6SquareC1E5Piece5Color, symObjAddr: 0x3DD0, symBinAddr: 0x10000682C, symSize: 0x3C }
  - { offsetInCU: 0xE5E3, offset: 0xE5E3, size: 0x8, addend: 0x0, symName: __ZNSt3__16vectorINS0_I6SquareNS_9allocatorIS1_EEEENS2_IS4_EEEixB8ue170006Em, symObjAddr: 0x3E0C, symBinAddr: 0x100006868, symSize: 0x2C }
  - { offsetInCU: 0xE619, offset: 0xE619, size: 0x8, addend: 0x0, symName: __ZNSt3__16vectorI6SquareNS_9allocatorIS1_EEEixB8ue170006Em, symObjAddr: 0x3E38, symBinAddr: 0x100006894, symSize: 0x24 }
  - { offsetInCU: 0xE64F, offset: 0xE64F, size: 0x8, addend: 0x0, symName: __ZN6SquareC2E5Piece5Color, symObjAddr: 0x3E5C, symBinAddr: 0x1000068B8, symSize: 0x2C }
  - { offsetInCU: 0xE694, offset: 0xE694, size: 0x8, addend: 0x0, symName: __ZNSt3__16vectorINS0_I6SquareNS_9allocatorIS1_EEEENS2_IS4_EEED2B8ue170006Ev, symObjAddr: 0x3E88, symBinAddr: 0x1000068E4, symSize: 0x44 }
  - { offsetInCU: 0xE6BD, offset: 0xE6BD, size: 0x8, addend: 0x0, symName: __ZNSt3__16vectorINS0_I6SquareNS_9allocatorIS1_EEEENS2_IS4_EEE16__destroy_vectorC1B8ue170006ERS6_, symObjAddr: 0x3ECC, symBinAddr: 0x100006928, symSize: 0x34 }
  - { offsetInCU: 0xE6F5, offset: 0xE6F5, size: 0x8, addend: 0x0, symName: __ZNSt3__16vectorINS0_I6SquareNS_9allocatorIS1_EEEENS2_IS4_EEE16__destroy_vectorclB8ue170006Ev, symObjAddr: 0x3F00, symBinAddr: 0x10000695C, symSize: 0x90 }
  - { offsetInCU: 0xE71A, offset: 0xE71A, size: 0x8, addend: 0x0, symName: __ZNSt3__16vectorINS0_I6SquareNS_9allocatorIS1_EEEENS2_IS4_EEE16__destroy_vectorC2B8ue170006ERS6_, symObjAddr: 0x3F90, symBinAddr: 0x1000069EC, symSize: 0x20 }
  - { offsetInCU: 0xE752, offset: 0xE752, size: 0x8, addend: 0x0, symName: __ZNSt3__16vectorINS0_I6SquareNS_9allocatorIS1_EEEENS2_IS4_EEE7__clearB8ue170006Ev, symObjAddr: 0x3FB0, symBinAddr: 0x100006A0C, symSize: 0x28 }
  - { offsetInCU: 0xE777, offset: 0xE777, size: 0x8, addend: 0x0, symName: __ZNK10ChessBoard12getPieceCharERK6Square, symObjAddr: 0x3FD8, symBinAddr: 0x100006A34, symSize: 0xF0 }
  - { offsetInCU: 0xE7B8, offset: 0xE7B8, size: 0x8, addend: 0x0, symName: __ZNSt3__113basic_ostreamIcNS_11char_traitsIcEEElsB8ue170006EPFRS3_S4_E, symObjAddr: 0x415C, symBinAddr: 0x100006BB8, symSize: 0x2C }
  - { offsetInCU: 0xE7EB, offset: 0xE7EB, size: 0x8, addend: 0x0, symName: __ZNSt3__111char_traitsIcE6lengthB8ue170006EPKc, symObjAddr: 0x43F0, symBinAddr: 0x100006E4C, symSize: 0x34 }
  - { offsetInCU: 0xE82C, offset: 0xE82C, size: 0x8, addend: 0x0, symName: __ZNKSt3__113basic_ostreamIcNS_11char_traitsIcEEE6sentrycvbB8ue170006Ev, symObjAddr: 0x4424, symBinAddr: 0x100006E80, symSize: 0x1C }
  - { offsetInCU: 0xE851, offset: 0xE851, size: 0x8, addend: 0x0, symName: __ZNSt3__119ostreambuf_iteratorIcNS_11char_traitsIcEEEC1B8ue170006ERNS_13basic_ostreamIcS2_EE, symObjAddr: 0x4680, symBinAddr: 0x1000070DC, symSize: 0x34 }
  - { offsetInCU: 0xE888, offset: 0xE888, size: 0x8, addend: 0x0, symName: __ZNKSt3__18ios_base5flagsB8ue170006Ev, symObjAddr: 0x46B4, symBinAddr: 0x100007110, symSize: 0x18 }
  - { offsetInCU: 0xE8AE, offset: 0xE8AE, size: 0x8, addend: 0x0, symName: __ZNKSt3__19basic_iosIcNS_11char_traitsIcEEE4fillB8ue170006Ev, symObjAddr: 0x46CC, symBinAddr: 0x100007128, symSize: 0x64 }
  - { offsetInCU: 0xE8D5, offset: 0xE8D5, size: 0x8, addend: 0x0, symName: __ZNKSt3__119ostreambuf_iteratorIcNS_11char_traitsIcEEE6failedB8ue170006Ev, symObjAddr: 0x4730, symBinAddr: 0x10000718C, symSize: 0x24 }
  - { offsetInCU: 0xE8FA, offset: 0xE8FA, size: 0x8, addend: 0x0, symName: __ZNSt3__19basic_iosIcNS_11char_traitsIcEEE8setstateB8ue170006Ej, symObjAddr: 0x4754, symBinAddr: 0x1000071B0, symSize: 0x2C }
  - { offsetInCU: 0xE92E, offset: 0xE92E, size: 0x8, addend: 0x0, symName: __ZNKSt3__18ios_base5widthB8ue170006Ev, symObjAddr: 0x4780, symBinAddr: 0x1000071DC, symSize: 0x18 }
  - { offsetInCU: 0xE955, offset: 0xE955, size: 0x8, addend: 0x0, symName: __ZNSt3__115basic_streambufIcNS_11char_traitsIcEEE5sputnB8ue170006EPKcl, symObjAddr: 0x4798, symBinAddr: 0x1000071F4, symSize: 0x3C }
  - { offsetInCU: 0xE996, offset: 0xE996, size: 0x8, addend: 0x0, symName: __ZNSt3__112basic_stringIcNS_11char_traitsIcEENS_9allocatorIcEEEC1B8ue170006Emc, symObjAddr: 0x47D4, symBinAddr: 0x100007230, symSize: 0x3C }
  - { offsetInCU: 0xE9DD, offset: 0xE9DD, size: 0x8, addend: 0x0, symName: __ZNKSt3__112basic_stringIcNS_11char_traitsIcEENS_9allocatorIcEEE4dataB8ue170006Ev, symObjAddr: 0x4810, symBinAddr: 0x10000726C, symSize: 0x28 }
  - { offsetInCU: 0xEA02, offset: 0xEA02, size: 0x8, addend: 0x0, symName: __ZNSt3__18ios_base5widthB8ue170006El, symObjAddr: 0x4838, symBinAddr: 0x100007294, symSize: 0x2C }
  - { offsetInCU: 0xEA47, offset: 0xEA47, size: 0x8, addend: 0x0, symName: __ZNSt3__112basic_stringIcNS_11char_traitsIcEENS_9allocatorIcEEEC2B8ue170006Emc, symObjAddr: 0x4864, symBinAddr: 0x1000072C0, symSize: 0x4C }
  - { offsetInCU: 0xEA8E, offset: 0xEA8E, size: 0x8, addend: 0x0, symName: __ZNSt3__117__compressed_pairINS_12basic_stringIcNS_11char_traitsIcEENS_9allocatorIcEEE5__repES5_EC1B8ue170006INS_18__default_init_tagESA_EEOT_OT0_, symObjAddr: 0x48B0, symBinAddr: 0x10000730C, symSize: 0x3C }
  - { offsetInCU: 0xEAE5, offset: 0xEAE5, size: 0x8, addend: 0x0, symName: __ZNSt3__117__compressed_pairINS_12basic_stringIcNS_11char_traitsIcEENS_9allocatorIcEEE5__repES5_EC2B8ue170006INS_18__default_init_tagESA_EEOT_OT0_, symObjAddr: 0x48EC, symBinAddr: 0x100007348, symSize: 0x3C }
  - { offsetInCU: 0xEB3C, offset: 0xEB3C, size: 0x8, addend: 0x0, symName: __ZNSt3__122__compressed_pair_elemINS_12basic_stringIcNS_11char_traitsIcEENS_9allocatorIcEEE5__repELi0ELb0EEC2B8ue170006ENS_18__default_init_tagE, symObjAddr: 0x4928, symBinAddr: 0x100007384, symSize: 0x14 }
  - { offsetInCU: 0xEB70, offset: 0xEB70, size: 0x8, addend: 0x0, symName: __ZNSt3__122__compressed_pair_elemINS_9allocatorIcEELi1ELb1EEC2B8ue170006ENS_18__default_init_tagE, symObjAddr: 0x493C, symBinAddr: 0x100007398, symSize: 0x2C }
  - { offsetInCU: 0xEBA4, offset: 0xEBA4, size: 0x8, addend: 0x0, symName: __ZNSt3__19allocatorIcEC2B8ue170006Ev, symObjAddr: 0x4968, symBinAddr: 0x1000073C4, symSize: 0x2C }
  - { offsetInCU: 0xEBCD, offset: 0xEBCD, size: 0x8, addend: 0x0, symName: __ZNSt3__116__non_trivial_ifILb1ENS_9allocatorIcEEEC2B8ue170006Ev, symObjAddr: 0x4994, symBinAddr: 0x1000073F0, symSize: 0x14 }
  - { offsetInCU: 0xEBF6, offset: 0xEBF6, size: 0x8, addend: 0x0, symName: __ZNKSt3__112basic_stringIcNS_11char_traitsIcEENS_9allocatorIcEEE13__get_pointerB8ue170006Ev, symObjAddr: 0x49BC, symBinAddr: 0x100007418, symSize: 0x54 }
  - { offsetInCU: 0xEC1B, offset: 0xEC1B, size: 0x8, addend: 0x0, symName: __ZNKSt3__112basic_stringIcNS_11char_traitsIcEENS_9allocatorIcEEE9__is_longB8ue170006Ev, symObjAddr: 0x4A10, symBinAddr: 0x10000746C, symSize: 0x38 }
  - { offsetInCU: 0xEC40, offset: 0xEC40, size: 0x8, addend: 0x0, symName: __ZNKSt3__112basic_stringIcNS_11char_traitsIcEENS_9allocatorIcEEE18__get_long_pointerB8ue170006Ev, symObjAddr: 0x4A48, symBinAddr: 0x1000074A4, symSize: 0x28 }
  - { offsetInCU: 0xEC65, offset: 0xEC65, size: 0x8, addend: 0x0, symName: __ZNKSt3__112basic_stringIcNS_11char_traitsIcEENS_9allocatorIcEEE19__get_short_pointerB8ue170006Ev, symObjAddr: 0x4A70, symBinAddr: 0x1000074CC, symSize: 0x28 }
  - { offsetInCU: 0xEC8A, offset: 0xEC8A, size: 0x8, addend: 0x0, symName: __ZNKSt3__117__compressed_pairINS_12basic_stringIcNS_11char_traitsIcEENS_9allocatorIcEEE5__repES5_E5firstB8ue170006Ev, symObjAddr: 0x4A98, symBinAddr: 0x1000074F4, symSize: 0x24 }
  - { offsetInCU: 0xECAF, offset: 0xECAF, size: 0x8, addend: 0x0, symName: __ZNKSt3__122__compressed_pair_elemINS_12basic_stringIcNS_11char_traitsIcEENS_9allocatorIcEEE5__repELi0ELb0EE5__getB8ue170006Ev, symObjAddr: 0x4ABC, symBinAddr: 0x100007518, symSize: 0x14 }
  - { offsetInCU: 0xECD4, offset: 0xECD4, size: 0x8, addend: 0x0, symName: __ZNSt3__114pointer_traitsIPKcE10pointer_toB8ue170006ERS1_, symObjAddr: 0x4AD0, symBinAddr: 0x10000752C, symSize: 0x14 }
  - { offsetInCU: 0xECF7, offset: 0xECF7, size: 0x8, addend: 0x0, symName: __ZNSt3__119ostreambuf_iteratorIcNS_11char_traitsIcEEEC2B8ue170006ERNS_13basic_ostreamIcS2_EE, symObjAddr: 0x4AE4, symBinAddr: 0x100007540, symSize: 0x54 }
  - { offsetInCU: 0xED2D, offset: 0xED2D, size: 0x8, addend: 0x0, symName: __ZNKSt3__19basic_iosIcNS_11char_traitsIcEEE5rdbufB8ue170006Ev, symObjAddr: 0x4B38, symBinAddr: 0x100007594, symSize: 0x24 }
  - { offsetInCU: 0xED54, offset: 0xED54, size: 0x8, addend: 0x0, symName: __ZNKSt3__18ios_base5rdbufB8ue170006Ev, symObjAddr: 0x4B5C, symBinAddr: 0x1000075B8, symSize: 0x18 }
  - { offsetInCU: 0xED79, offset: 0xED79, size: 0x8, addend: 0x0, symName: __ZNSt3__111char_traitsIcE11eq_int_typeB8ue170006Eii, symObjAddr: 0x4B74, symBinAddr: 0x1000075D0, symSize: 0x28 }
  - { offsetInCU: 0xEDAC, offset: 0xEDAC, size: 0x8, addend: 0x0, symName: __ZNSt3__111char_traitsIcE3eofB8ue170006Ev, symObjAddr: 0x4B9C, symBinAddr: 0x1000075F8, symSize: 0x8 }
  - { offsetInCU: 0xEDBF, offset: 0xEDBF, size: 0x8, addend: 0x0, symName: __ZNKSt3__19basic_iosIcNS_11char_traitsIcEEE5widenB8ue170006Ec, symObjAddr: 0x4BA4, symBinAddr: 0x100007600, symSize: 0x84 }
  - { offsetInCU: 0xEE27, offset: 0xEE27, size: 0x8, addend: 0x0, symName: __ZNKSt3__15ctypeIcE5widenB8ue170006Ec, symObjAddr: 0x4C54, symBinAddr: 0x1000076B0, symSize: 0x38 }
  - { offsetInCU: 0xEE5A, offset: 0xEE5A, size: 0x8, addend: 0x0, symName: __ZNSt3__18ios_base8setstateB8ue170006Ej, symObjAddr: 0x4C8C, symBinAddr: 0x1000076E8, symSize: 0x34 }
  - { offsetInCU: 0xEE90, offset: 0xEE90, size: 0x8, addend: 0x0, symName: __ZN10ChessBoardD2Ev, symObjAddr: 0x4CE4, symBinAddr: 0x100007740, symSize: 0x2C }
...
